target datalayout = "e-m:e-p270:32:32-p271:32:32-p272:64:64-i64:64-i128:128-f80:128-n8:16:32:64-S128"
target triple = "x86_64-pc-linux-gnu"

%struct.UriMemoryManagerStruct = type { ptr, ptr, ptr, ptr, ptr, ptr }
%struct.UriTextRangeStructW = type { ptr, ptr }
%struct.UriUriStructW = type { %struct.UriTextRangeStructW, %struct.UriTextRangeStructW, %struct.UriTextRangeStructW, %struct.UriHostDataStructW, %struct.UriTextRangeStructW, ptr, ptr, %struct.UriTextRangeStructW, %struct.UriTextRangeStructW, i32, i32, ptr }
%struct.UriHostDataStructW = type { ptr, ptr, %struct.UriTextRangeStructW }
%struct.UriPathSegmentStructW = type { %struct.UriTextRangeStructW, ptr, ptr }

; Function Attrs: nounwind uwtable
define i32 @uriIsHostSetW(ptr noundef %0) #0 {
  %2 = alloca ptr, align 8
  store ptr %0, ptr %2, align 8, !tbaa !51
  %3 = load ptr, ptr %2, align 8, !tbaa !51
  %4 = icmp ne ptr %3, null
  br i1 %4, label %5, label %32

5:                                                ; preds = %1
  %6 = load ptr, ptr %2, align 8, !tbaa !51
  %7 = getelementptr inbounds nuw %struct.UriUriStructW, ptr %6, i32 0, i32 2
  %8 = getelementptr inbounds nuw %struct.UriTextRangeStructW, ptr %7, i32 0, i32 0
  %9 = load ptr, ptr %8, align 8, !tbaa !74
  %10 = icmp ne ptr %9, null
  br i1 %10, label %30, label %11

11:                                               ; preds = %5
  %12 = load ptr, ptr %2, align 8, !tbaa !51
  %13 = getelementptr inbounds nuw %struct.UriUriStructW, ptr %12, i32 0, i32 3
  %14 = getelementptr inbounds nuw %struct.UriHostDataStructW, ptr %13, i32 0, i32 0
  %15 = load ptr, ptr %14, align 8, !tbaa !75
  %16 = icmp ne ptr %15, null
  br i1 %16, label %30, label %17

17:                                               ; preds = %11
  %18 = load ptr, ptr %2, align 8, !tbaa !51
  %19 = getelementptr inbounds nuw %struct.UriUriStructW, ptr %18, i32 0, i32 3
  %20 = getelementptr inbounds nuw %struct.UriHostDataStructW, ptr %19, i32 0, i32 1
  %21 = load ptr, ptr %20, align 8, !tbaa !76
  %22 = icmp ne ptr %21, null
  br i1 %22, label %30, label %23

23:                                               ; preds = %17
  %24 = load ptr, ptr %2, align 8, !tbaa !51
  %25 = getelementptr inbounds nuw %struct.UriUriStructW, ptr %24, i32 0, i32 3
  %26 = getelementptr inbounds nuw %struct.UriHostDataStructW, ptr %25, i32 0, i32 2
  %27 = getelementptr inbounds nuw %struct.UriTextRangeStructW, ptr %26, i32 0, i32 0
  %28 = load ptr, ptr %27, align 8, !tbaa !77
  %29 = icmp ne ptr %28, null
  br label %30

30:                                               ; preds = %23, %17, %11, %5
  %31 = phi i1 [ true, %17 ], [ true, %11 ], [ true, %5 ], [ %29, %23 ]
  br label %32

32:                                               ; preds = %30, %1
  %33 = phi i1 [ false, %1 ], [ %31, %30 ]
  %34 = zext i1 %33 to i32
  ret i32 %34
}

; Function Attrs: nounwind uwtable
define void @uriFixEmptyTrailSegmentW(ptr noundef %0, ptr noundef %1) #0 {
  %3 = alloca ptr, align 8
  %4 = alloca ptr, align 8
  store ptr %0, ptr %3, align 8, !tbaa !51
  store ptr %1, ptr %4, align 8, !tbaa !16
  %5 = load ptr, ptr %3, align 8, !tbaa !51
  %6 = getelementptr inbounds nuw %struct.UriUriStructW, ptr %5, i32 0, i32 9
  %7 = load i32, ptr %6, align 8, !tbaa !80
  %8 = icmp ne i32 %7, 0
  br i1 %8, label %51, label %9

9:                                                ; preds = %2
  %10 = load ptr, ptr %3, align 8, !tbaa !51
  %11 = call i32 @uriIsHostSetW(ptr noundef %10)
  %12 = icmp ne i32 %11, 0
  br i1 %12, label %51, label %13

13:                                               ; preds = %9
  %14 = load ptr, ptr %3, align 8, !tbaa !51
  %15 = getelementptr inbounds nuw %struct.UriUriStructW, ptr %14, i32 0, i32 5
  %16 = load ptr, ptr %15, align 8, !tbaa !63
  %17 = icmp ne ptr %16, null
  br i1 %17, label %18, label %51

18:                                               ; preds = %13
  %19 = load ptr, ptr %3, align 8, !tbaa !51
  %20 = getelementptr inbounds nuw %struct.UriUriStructW, ptr %19, i32 0, i32 5
  %21 = load ptr, ptr %20, align 8, !tbaa !63
  %22 = getelementptr inbounds nuw %struct.UriPathSegmentStructW, ptr %21, i32 0, i32 1
  %23 = load ptr, ptr %22, align 8, !tbaa !69
  %24 = icmp eq ptr %23, null
  br i1 %24, label %25, label %51

25:                                               ; preds = %18
  %26 = load ptr, ptr %3, align 8, !tbaa !51
  %27 = getelementptr inbounds nuw %struct.UriUriStructW, ptr %26, i32 0, i32 5
  %28 = load ptr, ptr %27, align 8, !tbaa !63
  %29 = getelementptr inbounds nuw %struct.UriPathSegmentStructW, ptr %28, i32 0, i32 0
  %30 = getelementptr inbounds nuw %struct.UriTextRangeStructW, ptr %29, i32 0, i32 0
  %31 = load ptr, ptr %30, align 8, !tbaa !68
  %32 = load ptr, ptr %3, align 8, !tbaa !51
  %33 = getelementptr inbounds nuw %struct.UriUriStructW, ptr %32, i32 0, i32 5
  %34 = load ptr, ptr %33, align 8, !tbaa !63
  %35 = getelementptr inbounds nuw %struct.UriPathSegmentStructW, ptr %34, i32 0, i32 0
  %36 = getelementptr inbounds nuw %struct.UriTextRangeStructW, ptr %35, i32 0, i32 1
  %37 = load ptr, ptr %36, align 8, !tbaa !67
  %38 = icmp eq ptr %31, %37
  br i1 %38, label %39, label %51

39:                                               ; preds = %25
  %40 = load ptr, ptr %4, align 8, !tbaa !16
  %41 = getelementptr inbounds nuw %struct.UriMemoryManagerStruct, ptr %40, i32 0, i32 4
  %42 = load ptr, ptr %41, align 8, !tbaa !35
  %43 = load ptr, ptr %4, align 8, !tbaa !16
  %44 = load ptr, ptr %3, align 8, !tbaa !51
  %45 = getelementptr inbounds nuw %struct.UriUriStructW, ptr %44, i32 0, i32 5
  %46 = load ptr, ptr %45, align 8, !tbaa !63
  call void %42(ptr noundef %43, ptr noundef %46)
  %47 = load ptr, ptr %3, align 8, !tbaa !51
  %48 = getelementptr inbounds nuw %struct.UriUriStructW, ptr %47, i32 0, i32 5
  store ptr null, ptr %48, align 8, !tbaa !63
  %49 = load ptr, ptr %3, align 8, !tbaa !51
  %50 = getelementptr inbounds nuw %struct.UriUriStructW, ptr %49, i32 0, i32 6
  store ptr null, ptr %50, align 8, !tbaa !72
  br label %51

51:                                               ; preds = %39, %25, %18, %13, %9, %2
  ret void
}