; Function Attrs: nounwind uwtable
define void @uriFixEmptyTrailSegmentW(ptr noundef captures(none) %0, ptr noundef %1) local_unnamed_addr #4 {
  %3 = getelementptr inbounds nuw i8, ptr %0, i64 144
  %4 = load i32, ptr %3, align 8, !tbaa !66
  %.not = icmp eq i32 %4, 0
  br i1 %.not, label %5, label %uriIsHostSetW.exit.thread

5:                                                ; preds = %2
  %6 = getelementptr inbounds nuw i8, ptr %0, i64 32
  %7 = load ptr, ptr %6, align 8, !tbaa !57
  %.not5.i = icmp eq ptr %7, null
  br i1 %.not5.i, label %8, label %uriIsHostSetW.exit.thread

8:                                                ; preds = %5
  %9 = getelementptr inbounds nuw i8, ptr %0, i64 48
  %10 = load ptr, ptr %9, align 8, !tbaa !58
  %.not6.i = icmp eq ptr %10, null
  br i1 %.not6.i, label %11, label %uriIsHostSetW.exit.thread

11:                                               ; preds = %8
  %12 = getelementptr inbounds nuw i8, ptr %0, i64 56
  %13 = load ptr, ptr %12, align 8, !tbaa !59
  %.not7.i = icmp eq ptr %13, null
  br i1 %.not7.i, label %uriIsHostSetW.exit, label %uriIsHostSetW.exit.thread

uriIsHostSetW.exit:                               ; preds = %11
  %14 = getelementptr inbounds nuw i8, ptr %0, i64 64
  %15 = load ptr, ptr %14, align 8, !tbaa !60
  %.not14 = icmp eq ptr %15, null
  br i1 %.not14, label %16, label %uriIsHostSetW.exit.thread

16:                                               ; preds = %uriIsHostSetW.exit
  %17 = getelementptr inbounds nuw i8, ptr %0, i64 96
  %18 = load ptr, ptr %17, align 8, !tbaa !49
  %.not12 = icmp eq ptr %18, null
  br i1 %.not12, label %uriIsHostSetW.exit.thread, label %19

19:                                               ; preds = %16
  %20 = getelementptr inbounds nuw i8, ptr %18, i64 16
  %21 = load ptr, ptr %20, align 8, !tbaa !55
  %22 = icmp eq ptr %21, null
  br i1 %22, label %23, label %uriIsHostSetW.exit.thread

23:                                               ; preds = %19
  %24 = load ptr, ptr %18, align 8, !tbaa !53
  %25 = getelementptr inbounds nuw i8, ptr %18, i64 8
  %26 = load ptr, ptr %25, align 8, !tbaa !52
  %27 = icmp eq ptr %24, %26
  br i1 %27, label %28, label %uriIsHostSetW.exit.thread

28:                                               ; preds = %23
  %29 = getelementptr inbounds nuw i8, ptr %1, i64 32
  %30 = load ptr, ptr %29, align 8, !tbaa !26
  tail call void %30(ptr noundef %1, ptr noundef nonnull %18) #11
  tail call void @llvm.memset.p0.i64(ptr noundef nonnull align 8 dereferenceable(16) %17, i8 0, i64 16, i1 false)
  br label %uriIsHostSetW.exit.thread

uriIsHostSetW.exit.thread:                        ; preds = %5, %8, %11, %28, %23, %19, %16, %uriIsHostSetW.exit, %2
  ret void
}